target datalayout = "e-m:e-p270:32:32-p271:32:32-p272:64:64-i64:64-i128:128-f80:128-n8:16:32:64-S128"
target triple = "x86_64-pc-linux-gnu"

@hf_Tango_ArchiveEventProp_rel_change = internal global i32 0, align 4
@hf_Tango_ArchiveEventProp_abs_change = internal global i32 0, align 4
@hf_Tango_ArchiveEventProp_period = internal global i32 0, align 4
@hf_Tango_ArchiveEventProp_extensions_loop = internal global i32 0, align 4
@hf_Tango_ArchiveEventProp_extensions = internal global i32 0, align 4
@hf_Tango_PeriodicEventProp_period = internal global i32 0, align 4
@hf_Tango_PeriodicEventProp_extensions_loop = internal global i32 0, align 4
@hf_Tango_PeriodicEventProp_extensions = internal global i32 0, align 4
@hf_Tango_ChangeEventProp_rel_change = internal global i32 0, align 4
@hf_Tango_ChangeEventProp_abs_change = internal global i32 0, align 4
@hf_Tango_ChangeEventProp_extensions_loop = internal global i32 0, align 4
@hf_Tango_ChangeEventProp_extensions = internal global i32 0, align 4
@ett_giop_struct = internal global i32 0, align 4
@ett_giop_sequence = internal global i32 0, align 4
@boundary = internal global i32 12, align 4
@.str.827 = private unnamed_addr constant [29 x i8] c"struct Tango_ChangeEventProp\00", align 1
@.str.828 = private unnamed_addr constant [31 x i8] c"struct Tango_PeriodicEventProp\00", align 1
@.str.829 = private unnamed_addr constant [30 x i8] c"struct Tango_ArchiveEventProp\00", align 1
@.str.830 = private unnamed_addr constant [42 x i8] c"sequence Tango_ChangeEventProp_extensions\00", align 1
@.str.831 = private unnamed_addr constant [44 x i8] c"sequence Tango_PeriodicEventProp_extensions\00", align 1
@.str.832 = private unnamed_addr constant [43 x i8] c"sequence Tango_ArchiveEventProp_extensions\00", align 1

; Function Attrs: null_pointer_is_valid sspstrong uwtable
define internal void @decode_Tango_ArchiveEventProp_st(ptr noundef %0, ptr noundef %1, ptr noundef %2, ptr noundef %3, ptr noundef %4, ptr noundef %5, ptr noundef %6, i1 noundef zeroext %7) #0 {
  %9 = alloca ptr, align 8
  %10 = alloca ptr, align 8
  %11 = alloca ptr, align 8
  %12 = alloca ptr, align 8
  %13 = alloca ptr, align 8
  %14 = alloca ptr, align 8
  %15 = alloca ptr, align 8
  %16 = alloca i8, align 1
  %17 = alloca i32, align 4
  %18 = alloca i32, align 4
  %19 = alloca ptr, align 8
  store ptr %0, ptr %9, align 8
  store ptr %1, ptr %10, align 8
  store ptr %2, ptr %11, align 8
  store ptr %3, ptr %12, align 8
  store ptr %4, ptr %13, align 8
  store ptr %5, ptr %14, align 8
  store ptr %6, ptr %15, align 8
  %20 = zext i1 %7 to i8
  store i8 %20, ptr %16, align 1
  call void @llvm.lifetime.start.p0(i64 4, ptr %17) #6
  call void @llvm.lifetime.start.p0(i64 4, ptr %18) #6
  %21 = load ptr, ptr %11, align 8
  %22 = load ptr, ptr %9, align 8
  %23 = load ptr, ptr %13, align 8
  %24 = load i8, ptr %16, align 1, !range !6, !noundef !7
  %25 = trunc i8 %24 to i1
  %26 = load i32, ptr @boundary, align 4
  %27 = load i32, ptr @hf_Tango_ArchiveEventProp_rel_change, align 4
  call void @giop_add_CDR_string(ptr noundef %21, ptr noundef %22, ptr noundef %23, i1 noundef zeroext %25, i32 noundef %26, i32 noundef %27)
  %28 = load ptr, ptr %11, align 8
  %29 = load ptr, ptr %9, align 8
  %30 = load ptr, ptr %13, align 8
  %31 = load i8, ptr %16, align 1, !range !6, !noundef !7
  %32 = trunc i8 %31 to i1
  %33 = load i32, ptr @boundary, align 4
  %34 = load i32, ptr @hf_Tango_ArchiveEventProp_abs_change, align 4
  call void @giop_add_CDR_string(ptr noundef %28, ptr noundef %29, ptr noundef %30, i1 noundef zeroext %32, i32 noundef %33, i32 noundef %34)
  %35 = load ptr, ptr %11, align 8
  %36 = load ptr, ptr %9, align 8
  %37 = load ptr, ptr %13, align 8
  %38 = load i8, ptr %16, align 1, !range !6, !noundef !7
  %39 = trunc i8 %38 to i1
  %40 = load i32, ptr @boundary, align 4
  %41 = load i32, ptr @hf_Tango_ArchiveEventProp_period, align 4
  call void @giop_add_CDR_string(ptr noundef %35, ptr noundef %36, ptr noundef %37, i1 noundef zeroext %39, i32 noundef %40, i32 noundef %41)
  %42 = load ptr, ptr %9, align 8
  %43 = load ptr, ptr %13, align 8
  %44 = load i8, ptr %16, align 1, !range !6, !noundef !7
  %45 = trunc i8 %44 to i1
  %46 = load i32, ptr @boundary, align 4
  %47 = call i32 @get_CDR_ulong(ptr noundef %42, ptr noundef %43, i1 noundef zeroext %45, i32 noundef %46)
  store i32 %47, ptr %17, align 4
  %48 = load ptr, ptr %11, align 8
  %49 = load i32, ptr @hf_Tango_ArchiveEventProp_extensions_loop, align 4
  %50 = load ptr, ptr %9, align 8
  %51 = load ptr, ptr %13, align 8
  %52 = load i32, ptr %51, align 4
  %53 = sub i32 %52, 4
  %54 = load i32, ptr %17, align 4
  %55 = call ptr @proto_tree_add_uint(ptr noundef %48, i32 noundef %49, ptr noundef %50, i32 noundef %53, i32 noundef 4, i32 noundef %54)
  call void @llvm.lifetime.start.p0(i64 8, ptr %19) #6
  %56 = load ptr, ptr %11, align 8
  store ptr %56, ptr %19, align 8
  %57 = load ptr, ptr %11, align 8
  %58 = load ptr, ptr %9, align 8
  %59 = load ptr, ptr %13, align 8
  %60 = load i32, ptr %59, align 4
  %61 = load i32, ptr @ett_giop_sequence, align 4
  %62 = call ptr @proto_tree_add_subtree(ptr noundef %57, ptr noundef %58, i32 noundef %60, i32 noundef -1, i32 noundef %61, ptr noundef null, ptr noundef @.str.832)
  store ptr %62, ptr %11, align 8
  store i32 0, ptr %18, align 4
  br label %63

63:                                               ; preds = %75, %8
  %64 = load i32, ptr %18, align 4
  %65 = load i32, ptr %17, align 4
  %66 = icmp ult i32 %64, %65
  br i1 %66, label %67, label %78

67:                                               ; preds = %63
  %68 = load ptr, ptr %11, align 8
  %69 = load ptr, ptr %9, align 8
  %70 = load ptr, ptr %13, align 8
  %71 = load i8, ptr %16, align 1, !range !6, !noundef !7
  %72 = trunc i8 %71 to i1
  %73 = load i32, ptr @boundary, align 4
  %74 = load i32, ptr @hf_Tango_ArchiveEventProp_extensions, align 4
  call void @giop_add_CDR_string(ptr noundef %68, ptr noundef %69, ptr noundef %70, i1 noundef zeroext %72, i32 noundef %73, i32 noundef %74)
  br label %75

75:                                               ; preds = %67
  %76 = load i32, ptr %18, align 4
  %77 = add i32 %76, 1
  store i32 %77, ptr %18, align 4
  br label %63, !llvm.loop !84

78:                                               ; preds = %63
  %79 = load ptr, ptr %19, align 8
  store ptr %79, ptr %11, align 8
  call void @llvm.lifetime.end.p0(i64 8, ptr %19) #6
  call void @llvm.lifetime.end.p0(i64 4, ptr %18) #6
  call void @llvm.lifetime.end.p0(i64 4, ptr %17) #6
  ret void
}

; Function Attrs: null_pointer_is_valid sspstrong uwtable
define internal void @decode_Tango_PeriodicEventProp_st(ptr noundef %0, ptr noundef %1, ptr noundef %2, ptr noundef %3, ptr noundef %4, ptr noundef %5, ptr noundef %6, i1 noundef zeroext %7) #0 {
  %9 = alloca ptr, align 8
  %10 = alloca ptr, align 8
  %11 = alloca ptr, align 8
  %12 = alloca ptr, align 8
  %13 = alloca ptr, align 8
  %14 = alloca ptr, align 8
  %15 = alloca ptr, align 8
  %16 = alloca i8, align 1
  %17 = alloca i32, align 4
  %18 = alloca i32, align 4
  %19 = alloca ptr, align 8
  store ptr %0, ptr %9, align 8
  store ptr %1, ptr %10, align 8
  store ptr %2, ptr %11, align 8
  store ptr %3, ptr %12, align 8
  store ptr %4, ptr %13, align 8
  store ptr %5, ptr %14, align 8
  store ptr %6, ptr %15, align 8
  %20 = zext i1 %7 to i8
  store i8 %20, ptr %16, align 1
  call void @llvm.lifetime.start.p0(i64 4, ptr %17) #6
  call void @llvm.lifetime.start.p0(i64 4, ptr %18) #6
  %21 = load ptr, ptr %11, align 8
  %22 = load ptr, ptr %9, align 8
  %23 = load ptr, ptr %13, align 8
  %24 = load i8, ptr %16, align 1, !range !6, !noundef !7
  %25 = trunc i8 %24 to i1
  %26 = load i32, ptr @boundary, align 4
  %27 = load i32, ptr @hf_Tango_PeriodicEventProp_period, align 4
  call void @giop_add_CDR_string(ptr noundef %21, ptr noundef %22, ptr noundef %23, i1 noundef zeroext %25, i32 noundef %26, i32 noundef %27)
  %28 = load ptr, ptr %9, align 8
  %29 = load ptr, ptr %13, align 8
  %30 = load i8, ptr %16, align 1, !range !6, !noundef !7
  %31 = trunc i8 %30 to i1
  %32 = load i32, ptr @boundary, align 4
  %33 = call i32 @get_CDR_ulong(ptr noundef %28, ptr noundef %29, i1 noundef zeroext %31, i32 noundef %32)
  store i32 %33, ptr %17, align 4
  %34 = load ptr, ptr %11, align 8
  %35 = load i32, ptr @hf_Tango_PeriodicEventProp_extensions_loop, align 4
  %36 = load ptr, ptr %9, align 8
  %37 = load ptr, ptr %13, align 8
  %38 = load i32, ptr %37, align 4
  %39 = sub i32 %38, 4
  %40 = load i32, ptr %17, align 4
  %41 = call ptr @proto_tree_add_uint(ptr noundef %34, i32 noundef %35, ptr noundef %36, i32 noundef %39, i32 noundef 4, i32 noundef %40)
  call void @llvm.lifetime.start.p0(i64 8, ptr %19) #6
  %42 = load ptr, ptr %11, align 8
  store ptr %42, ptr %19, align 8
  %43 = load ptr, ptr %11, align 8
  %44 = load ptr, ptr %9, align 8
  %45 = load ptr, ptr %13, align 8
  %46 = load i32, ptr %45, align 4
  %47 = load i32, ptr @ett_giop_sequence, align 4
  %48 = call ptr @proto_tree_add_subtree(ptr noundef %43, ptr noundef %44, i32 noundef %46, i32 noundef -1, i32 noundef %47, ptr noundef null, ptr noundef @.str.831)
  store ptr %48, ptr %11, align 8
  store i32 0, ptr %18, align 4
  br label %49

49:                                               ; preds = %61, %8
  %50 = load i32, ptr %18, align 4
  %51 = load i32, ptr %17, align 4
  %52 = icmp ult i32 %50, %51
  br i1 %52, label %53, label %64

53:                                               ; preds = %49
  %54 = load ptr, ptr %11, align 8
  %55 = load ptr, ptr %9, align 8
  %56 = load ptr, ptr %13, align 8
  %57 = load i8, ptr %16, align 1, !range !6, !noundef !7
  %58 = trunc i8 %57 to i1
  %59 = load i32, ptr @boundary, align 4
  %60 = load i32, ptr @hf_Tango_PeriodicEventProp_extensions, align 4
  call void @giop_add_CDR_string(ptr noundef %54, ptr noundef %55, ptr noundef %56, i1 noundef zeroext %58, i32 noundef %59, i32 noundef %60)
  br label %61

61:                                               ; preds = %53
  %62 = load i32, ptr %18, align 4
  %63 = add i32 %62, 1
  store i32 %63, ptr %18, align 4
  br label %49, !llvm.loop !83

64:                                               ; preds = %49
  %65 = load ptr, ptr %19, align 8
  store ptr %65, ptr %11, align 8
  call void @llvm.lifetime.end.p0(i64 8, ptr %19) #6
  call void @llvm.lifetime.end.p0(i64 4, ptr %18) #6
  call void @llvm.lifetime.end.p0(i64 4, ptr %17) #6
  ret void
}

; Function Attrs: null_pointer_is_valid sspstrong uwtable
define internal void @decode_Tango_ChangeEventProp_st(ptr noundef %0, ptr noundef %1, ptr noundef %2, ptr noundef %3, ptr noundef %4, ptr noundef %5, ptr noundef %6, i1 noundef zeroext %7) #0 {
  %9 = alloca ptr, align 8
  %10 = alloca ptr, align 8
  %11 = alloca ptr, align 8
  %12 = alloca ptr, align 8
  %13 = alloca ptr, align 8
  %14 = alloca ptr, align 8
  %15 = alloca ptr, align 8
  %16 = alloca i8, align 1
  %17 = alloca i32, align 4
  %18 = alloca i32, align 4
  %19 = alloca ptr, align 8
  store ptr %0, ptr %9, align 8
  store ptr %1, ptr %10, align 8
  store ptr %2, ptr %11, align 8
  store ptr %3, ptr %12, align 8
  store ptr %4, ptr %13, align 8
  store ptr %5, ptr %14, align 8
  store ptr %6, ptr %15, align 8
  %20 = zext i1 %7 to i8
  store i8 %20, ptr %16, align 1
  call void @llvm.lifetime.start.p0(i64 4, ptr %17) #6
  call void @llvm.lifetime.start.p0(i64 4, ptr %18) #6
  %21 = load ptr, ptr %11, align 8
  %22 = load ptr, ptr %9, align 8
  %23 = load ptr, ptr %13, align 8
  %24 = load i8, ptr %16, align 1, !range !6, !noundef !7
  %25 = trunc i8 %24 to i1
  %26 = load i32, ptr @boundary, align 4
  %27 = load i32, ptr @hf_Tango_ChangeEventProp_rel_change, align 4
  call void @giop_add_CDR_string(ptr noundef %21, ptr noundef %22, ptr noundef %23, i1 noundef zeroext %25, i32 noundef %26, i32 noundef %27)
  %28 = load ptr, ptr %11, align 8
  %29 = load ptr, ptr %9, align 8
  %30 = load ptr, ptr %13, align 8
  %31 = load i8, ptr %16, align 1, !range !6, !noundef !7
  %32 = trunc i8 %31 to i1
  %33 = load i32, ptr @boundary, align 4
  %34 = load i32, ptr @hf_Tango_ChangeEventProp_abs_change, align 4
  call void @giop_add_CDR_string(ptr noundef %28, ptr noundef %29, ptr noundef %30, i1 noundef zeroext %32, i32 noundef %33, i32 noundef %34)
  %35 = load ptr, ptr %9, align 8
  %36 = load ptr, ptr %13, align 8
  %37 = load i8, ptr %16, align 1, !range !6, !noundef !7
  %38 = trunc i8 %37 to i1
  %39 = load i32, ptr @boundary, align 4
  %40 = call i32 @get_CDR_ulong(ptr noundef %35, ptr noundef %36, i1 noundef zeroext %38, i32 noundef %39)
  store i32 %40, ptr %17, align 4
  %41 = load ptr, ptr %11, align 8
  %42 = load i32, ptr @hf_Tango_ChangeEventProp_extensions_loop, align 4
  %43 = load ptr, ptr %9, align 8
  %44 = load ptr, ptr %13, align 8
  %45 = load i32, ptr %44, align 4
  %46 = sub i32 %45, 4
  %47 = load i32, ptr %17, align 4
  %48 = call ptr @proto_tree_add_uint(ptr noundef %41, i32 noundef %42, ptr noundef %43, i32 noundef %46, i32 noundef 4, i32 noundef %47)
  call void @llvm.lifetime.start.p0(i64 8, ptr %19) #6
  %49 = load ptr, ptr %11, align 8
  store ptr %49, ptr %19, align 8
  %50 = load ptr, ptr %11, align 8
  %51 = load ptr, ptr %9, align 8
  %52 = load ptr, ptr %13, align 8
  %53 = load i32, ptr %52, align 4
  %54 = load i32, ptr @ett_giop_sequence, align 4
  %55 = call ptr @proto_tree_add_subtree(ptr noundef %50, ptr noundef %51, i32 noundef %53, i32 noundef -1, i32 noundef %54, ptr noundef null, ptr noundef @.str.830)
  store ptr %55, ptr %11, align 8
  store i32 0, ptr %18, align 4
  br label %56

56:                                               ; preds = %68, %8
  %57 = load i32, ptr %18, align 4
  %58 = load i32, ptr %17, align 4
  %59 = icmp ult i32 %57, %58
  br i1 %59, label %60, label %71

60:                                               ; preds = %56
  %61 = load ptr, ptr %11, align 8
  %62 = load ptr, ptr %9, align 8
  %63 = load ptr, ptr %13, align 8
  %64 = load i8, ptr %16, align 1, !range !6, !noundef !7
  %65 = trunc i8 %64 to i1
  %66 = load i32, ptr @boundary, align 4
  %67 = load i32, ptr @hf_Tango_ChangeEventProp_extensions, align 4
  call void @giop_add_CDR_string(ptr noundef %61, ptr noundef %62, ptr noundef %63, i1 noundef zeroext %65, i32 noundef %66, i32 noundef %67)
  br label %68

68:                                               ; preds = %60
  %69 = load i32, ptr %18, align 4
  %70 = add i32 %69, 1
  store i32 %70, ptr %18, align 4
  br label %56, !llvm.loop !82

71:                                               ; preds = %56
  %72 = load ptr, ptr %19, align 8
  store ptr %72, ptr %11, align 8
  call void @llvm.lifetime.end.p0(i64 8, ptr %19) #6
  call void @llvm.lifetime.end.p0(i64 4, ptr %18) #6
  call void @llvm.lifetime.end.p0(i64 4, ptr %17) #6
  ret void
}

; Function Attrs: null_pointer_is_valid sspstrong uwtable
define internal void @decode_Tango_EventProperties_st(ptr noundef %0, ptr noundef %1, ptr noundef %2, ptr noundef %3, ptr noundef %4, ptr noundef %5, ptr noundef %6, i1 noundef zeroext %7) #0 {
  %9 = alloca ptr, align 8
  %10 = alloca ptr, align 8
  %11 = alloca ptr, align 8
  %12 = alloca ptr, align 8
  %13 = alloca ptr, align 8
  %14 = alloca ptr, align 8
  %15 = alloca ptr, align 8
  %16 = alloca i8, align 1
  %17 = alloca ptr, align 8
  %18 = alloca ptr, align 8
  %19 = alloca ptr, align 8
  store ptr %0, ptr %9, align 8
  store ptr %1, ptr %10, align 8
  store ptr %2, ptr %11, align 8
  store ptr %3, ptr %12, align 8
  store ptr %4, ptr %13, align 8
  store ptr %5, ptr %14, align 8
  store ptr %6, ptr %15, align 8
  %20 = zext i1 %7 to i8
  store i8 %20, ptr %16, align 1
  call void @llvm.lifetime.start.p0(i64 8, ptr %17) #6
  %21 = load ptr, ptr %11, align 8
  %22 = load ptr, ptr %9, align 8
  %23 = load ptr, ptr %13, align 8
  %24 = load i32, ptr %23, align 4
  %25 = load i32, ptr @ett_giop_struct, align 4
  %26 = call ptr @proto_tree_add_subtree(ptr noundef %21, ptr noundef %22, i32 noundef %24, i32 noundef -1, i32 noundef %25, ptr noundef null, ptr noundef @.str.827)
  store ptr %26, ptr %17, align 8
  %27 = load ptr, ptr %9, align 8
  %28 = load ptr, ptr %10, align 8
  %29 = load ptr, ptr %17, align 8
  %30 = load ptr, ptr %12, align 8
  %31 = load ptr, ptr %13, align 8
  %32 = load ptr, ptr %14, align 8
  %33 = load ptr, ptr %15, align 8
  %34 = load i8, ptr %16, align 1, !range !6, !noundef !7
  %35 = trunc i8 %34 to i1
  call void @decode_Tango_ChangeEventProp_st(ptr noundef %27, ptr noundef %28, ptr noundef %29, ptr noundef %30, ptr noundef %31, ptr noundef %32, ptr noundef %33, i1 noundef zeroext %35)
  call void @llvm.lifetime.end.p0(i64 8, ptr %17) #6
  call void @llvm.lifetime.start.p0(i64 8, ptr %18) #6
  %36 = load ptr, ptr %11, align 8
  %37 = load ptr, ptr %9, align 8
  %38 = load ptr, ptr %13, align 8
  %39 = load i32, ptr %38, align 4
  %40 = load i32, ptr @ett_giop_struct, align 4
  %41 = call ptr @proto_tree_add_subtree(ptr noundef %36, ptr noundef %37, i32 noundef %39, i32 noundef -1, i32 noundef %40, ptr noundef null, ptr noundef @.str.828)
  store ptr %41, ptr %18, align 8
  %42 = load ptr, ptr %9, align 8
  %43 = load ptr, ptr %10, align 8
  %44 = load ptr, ptr %18, align 8
  %45 = load ptr, ptr %12, align 8
  %46 = load ptr, ptr %13, align 8
  %47 = load ptr, ptr %14, align 8
  %48 = load ptr, ptr %15, align 8
  %49 = load i8, ptr %16, align 1, !range !6, !noundef !7
  %50 = trunc i8 %49 to i1
  call void @decode_Tango_PeriodicEventProp_st(ptr noundef %42, ptr noundef %43, ptr noundef %44, ptr noundef %45, ptr noundef %46, ptr noundef %47, ptr noundef %48, i1 noundef zeroext %50)
  call void @llvm.lifetime.end.p0(i64 8, ptr %18) #6
  call void @llvm.lifetime.start.p0(i64 8, ptr %19) #6
  %51 = load ptr, ptr %11, align 8
  %52 = load ptr, ptr %9, align 8
  %53 = load ptr, ptr %13, align 8
  %54 = load i32, ptr %53, align 4
  %55 = load i32, ptr @ett_giop_struct, align 4
  %56 = call ptr @proto_tree_add_subtree(ptr noundef %51, ptr noundef %52, i32 noundef %54, i32 noundef -1, i32 noundef %55, ptr noundef null, ptr noundef @.str.829)
  store ptr %56, ptr %19, align 8
  %57 = load ptr, ptr %9, align 8
  %58 = load ptr, ptr %10, align 8
  %59 = load ptr, ptr %19, align 8
  %60 = load ptr, ptr %12, align 8
  %61 = load ptr, ptr %13, align 8
  %62 = load ptr, ptr %14, align 8
  %63 = load ptr, ptr %15, align 8
  %64 = load i8, ptr %16, align 1, !range !6, !noundef !7
  %65 = trunc i8 %64 to i1
  call void @decode_Tango_ArchiveEventProp_st(ptr noundef %57, ptr noundef %58, ptr noundef %59, ptr noundef %60, ptr noundef %61, ptr noundef %62, ptr noundef %63, i1 noundef zeroext %65)
  call void @llvm.lifetime.end.p0(i64 8, ptr %19) #6
  ret void
}