; Function Attrs: null_pointer_is_valid sspstrong uwtable
define internal fastcc void @decode_Tango_EventProperties_st(ptr noundef %0, ptr noundef %1, ptr noundef %2, i1 noundef zeroext %3) unnamed_addr #0 {
  %5 = load i32, ptr %2, align 4
  %6 = load i32, ptr @ett_giop_struct, align 4
  %7 = tail call ptr @proto_tree_add_subtree(ptr noundef %1, ptr noundef %0, i32 noundef %5, i32 noundef -1, i32 noundef %6, ptr noundef null, ptr noundef nonnull @.str.827)
  %8 = load i32, ptr @hf_Tango_ChangeEventProp_rel_change, align 4
  tail call void @giop_add_CDR_string(ptr noundef %7, ptr noundef %0, ptr noundef %2, i1 noundef zeroext %3, i32 noundef 12, i32 noundef %8)
  %9 = load i32, ptr @hf_Tango_ChangeEventProp_abs_change, align 4
  tail call void @giop_add_CDR_string(ptr noundef %7, ptr noundef %0, ptr noundef %2, i1 noundef zeroext %3, i32 noundef 12, i32 noundef %9)
  %10 = tail call i32 @get_CDR_ulong(ptr noundef %0, ptr noundef %2, i1 noundef zeroext %3, i32 noundef 12)
  %11 = load i32, ptr @hf_Tango_ChangeEventProp_extensions_loop, align 4
  %12 = load i32, ptr %2, align 4
  %13 = add i32 %12, -4
  %14 = tail call ptr @proto_tree_add_uint(ptr noundef %7, i32 noundef %11, ptr noundef %0, i32 noundef %13, i32 noundef 4, i32 noundef %10)
  %15 = load i32, ptr %2, align 4
  %16 = load i32, ptr @ett_giop_sequence, align 4
  %17 = tail call ptr @proto_tree_add_subtree(ptr noundef %7, ptr noundef %0, i32 noundef %15, i32 noundef -1, i32 noundef %16, ptr noundef null, ptr noundef nonnull @.str.830)
  %.not.i = icmp eq i32 %10, 0
  br i1 %.not.i, label %decode_Tango_ChangeEventProp_st.exit, label %.lr.ph.i

.lr.ph.i:                                         ; preds = %4, %.lr.ph.i
  %.01.i = phi i32 [ %19, %.lr.ph.i ], [ 0, %4 ]
  %18 = load i32, ptr @hf_Tango_ChangeEventProp_extensions, align 4
  tail call void @giop_add_CDR_string(ptr noundef %17, ptr noundef %0, ptr noundef %2, i1 noundef zeroext %3, i32 noundef 12, i32 noundef %18)
  %19 = add nuw i32 %.01.i, 1
  %exitcond.not.i = icmp eq i32 %19, %10
  br i1 %exitcond.not.i, label %decode_Tango_ChangeEventProp_st.exit, label %.lr.ph.i, !llvm.loop !97

decode_Tango_ChangeEventProp_st.exit:             ; preds = %.lr.ph.i, %4
  %20 = load i32, ptr %2, align 4
  %21 = load i32, ptr @ett_giop_struct, align 4
  %22 = tail call ptr @proto_tree_add_subtree(ptr noundef %1, ptr noundef %0, i32 noundef %20, i32 noundef -1, i32 noundef %21, ptr noundef null, ptr noundef nonnull @.str.828)
  %23 = load i32, ptr @hf_Tango_PeriodicEventProp_period, align 4
  tail call void @giop_add_CDR_string(ptr noundef %22, ptr noundef %0, ptr noundef %2, i1 noundef zeroext %3, i32 noundef 12, i32 noundef %23)
  %24 = tail call i32 @get_CDR_ulong(ptr noundef %0, ptr noundef %2, i1 noundef zeroext %3, i32 noundef 12)
  %25 = load i32, ptr @hf_Tango_PeriodicEventProp_extensions_loop, align 4
  %26 = load i32, ptr %2, align 4
  %27 = add i32 %26, -4
  %28 = tail call ptr @proto_tree_add_uint(ptr noundef %22, i32 noundef %25, ptr noundef %0, i32 noundef %27, i32 noundef 4, i32 noundef %24)
  %29 = load i32, ptr %2, align 4
  %30 = load i32, ptr @ett_giop_sequence, align 4
  %31 = tail call ptr @proto_tree_add_subtree(ptr noundef %22, ptr noundef %0, i32 noundef %29, i32 noundef -1, i32 noundef %30, ptr noundef null, ptr noundef nonnull @.str.831)
  %.not.i32 = icmp eq i32 %24, 0
  br i1 %.not.i32, label %decode_Tango_PeriodicEventProp_st.exit, label %.lr.ph.i33

.lr.ph.i33:                                       ; preds = %decode_Tango_ChangeEventProp_st.exit, %.lr.ph.i33
  %.01.i34 = phi i32 [ %33, %.lr.ph.i33 ], [ 0, %decode_Tango_ChangeEventProp_st.exit ]
  %32 = load i32, ptr @hf_Tango_PeriodicEventProp_extensions, align 4
  tail call void @giop_add_CDR_string(ptr noundef %31, ptr noundef %0, ptr noundef %2, i1 noundef zeroext %3, i32 noundef 12, i32 noundef %32)
  %33 = add nuw i32 %.01.i34, 1
  %exitcond.not.i35 = icmp eq i32 %33, %24
  br i1 %exitcond.not.i35, label %decode_Tango_PeriodicEventProp_st.exit, label %.lr.ph.i33, !llvm.loop !98

decode_Tango_PeriodicEventProp_st.exit:           ; preds = %.lr.ph.i33, %decode_Tango_ChangeEventProp_st.exit
  %34 = load i32, ptr %2, align 4
  %35 = load i32, ptr @ett_giop_struct, align 4
  %36 = tail call ptr @proto_tree_add_subtree(ptr noundef %1, ptr noundef %0, i32 noundef %34, i32 noundef -1, i32 noundef %35, ptr noundef null, ptr noundef nonnull @.str.829)
  %37 = load i32, ptr @hf_Tango_ArchiveEventProp_rel_change, align 4
  tail call void @giop_add_CDR_string(ptr noundef %36, ptr noundef %0, ptr noundef %2, i1 noundef zeroext %3, i32 noundef 12, i32 noundef %37)
  %38 = load i32, ptr @hf_Tango_ArchiveEventProp_abs_change, align 4
  tail call void @giop_add_CDR_string(ptr noundef %36, ptr noundef %0, ptr noundef %2, i1 noundef zeroext %3, i32 noundef 12, i32 noundef %38)
  %39 = load i32, ptr @hf_Tango_ArchiveEventProp_period, align 4
  tail call void @giop_add_CDR_string(ptr noundef %36, ptr noundef %0, ptr noundef %2, i1 noundef zeroext %3, i32 noundef 12, i32 noundef %39)
  %40 = tail call i32 @get_CDR_ulong(ptr noundef %0, ptr noundef %2, i1 noundef zeroext %3, i32 noundef 12)
  %41 = load i32, ptr @hf_Tango_ArchiveEventProp_extensions_loop, align 4
  %42 = load i32, ptr %2, align 4
  %43 = add i32 %42, -4
  %44 = tail call ptr @proto_tree_add_uint(ptr noundef %36, i32 noundef %41, ptr noundef %0, i32 noundef %43, i32 noundef 4, i32 noundef %40)
  %45 = load i32, ptr %2, align 4
  %46 = load i32, ptr @ett_giop_sequence, align 4
  %47 = tail call ptr @proto_tree_add_subtree(ptr noundef %36, ptr noundef %0, i32 noundef %45, i32 noundef -1, i32 noundef %46, ptr noundef null, ptr noundef nonnull @.str.832)
  %.not.i36 = icmp eq i32 %40, 0
  br i1 %.not.i36, label %decode_Tango_ArchiveEventProp_st.exit, label %.lr.ph.i37

.lr.ph.i37:                                       ; preds = %decode_Tango_PeriodicEventProp_st.exit, %.lr.ph.i37
  %.01.i38 = phi i32 [ %49, %.lr.ph.i37 ], [ 0, %decode_Tango_PeriodicEventProp_st.exit ]
  %48 = load i32, ptr @hf_Tango_ArchiveEventProp_extensions, align 4
  tail call void @giop_add_CDR_string(ptr noundef %47, ptr noundef %0, ptr noundef %2, i1 noundef zeroext %3, i32 noundef 12, i32 noundef %48)
  %49 = add nuw i32 %.01.i38, 1
  %exitcond.not.i39 = icmp eq i32 %49, %40
  br i1 %exitcond.not.i39, label %decode_Tango_ArchiveEventProp_st.exit, label %.lr.ph.i37, !llvm.loop !99

decode_Tango_ArchiveEventProp_st.exit:            ; preds = %.lr.ph.i37, %decode_Tango_PeriodicEventProp_st.exit
  ret void
}